target datalayout = "e-m:e-p270:32:32-p271:32:32-p272:64:64-i64:64-i128:128-f80:128-n8:16:32:64-S128"
target triple = "x86_64-pc-linux-gnu"

@recurse = internal thread_local(initialexec) global i8 0, align 1

; Function Attrs: noinline nounwind uwtable
define internal zeroext i1 @mi_recurse_enter_prim() #7 {
  %1 = alloca i1, align 1
  %2 = call align 1 ptr @llvm.threadlocal.address.p0(ptr align 1 @recurse)
  %3 = load i8, ptr %2, align 1, !tbaa !21, !range !23, !noundef !24
  %4 = trunc i8 %3 to i1
  br i1 %4, label %5, label %6

5:                                                ; preds = %0
  store i1 false, ptr %1, align 1
  br label %8

6:                                                ; preds = %0
  %7 = call align 1 ptr @llvm.threadlocal.address.p0(ptr align 1 @recurse)
  store i8 1, ptr %7, align 1, !tbaa !21
  store i1 true, ptr %1, align 1
  br label %8

8:                                                ; preds = %6, %5
  %9 = load i1, ptr %1, align 1
  ret i1 %9
}